; Function Attrs: mustprogress nofree norecurse nosync nounwind willreturn memory(read, argmem: readwrite, inaccessiblemem: none) uwtable
define void @_ZNK3gmx17TranslateAndScaleclEPNS_11BasicVectorIfEE(ptr nocapture noundef nonnull readonly align 8 dereferenceable(8) %0, ptr nocapture noundef %1) local_unnamed_addr #11 align 2 {
.lr.ph.i:
  %2 = load ptr, ptr %0, align 8
  %3 = getelementptr inbounds i8, ptr %2, i64 12
  %4 = getelementptr inbounds i8, ptr %2, i64 20
  %5 = getelementptr inbounds i8, ptr %2, i64 4
  %6 = getelementptr inbounds i8, ptr %2, i64 8
  %7 = getelementptr inbounds i8, ptr %1, i64 4
  %8 = load <2 x float>, ptr %1, align 4
  %9 = load <2 x float>, ptr %3, align 4
  %10 = fadd <2 x float> %8, %9
  %11 = getelementptr inbounds i8, ptr %1, i64 8
  %12 = load float, ptr %11, align 4
  %13 = load float, ptr %4, align 4
  %14 = fadd float %12, %13
  store <2 x float> %10, ptr %1, align 4
  store float %14, ptr %11, align 4
  %15 = load float, ptr %2, align 4
  %16 = extractelement <2 x float> %10, i64 0
  %17 = fmul float %16, %15
  store float %17, ptr %1, align 4
  %18 = load float, ptr %5, align 4
  %19 = extractelement <2 x float> %10, i64 1
  %20 = fmul float %19, %18
  store float %20, ptr %7, align 4
  %21 = load float, ptr %6, align 4
  %22 = fmul float %14, %21
  store float %22, ptr %11, align 4
  ret void
}